; ModuleID = 'source-C-CXX/46/3820.c'
source_filename = "source-C-CXX/46/3820.c"
target datalayout = "e-m:e-p270:32:32-p271:32:32-p272:64:64-i64:64-f80:128-n8:16:32:64-S128"
target triple = "x86_64-pc-linux-gnu"

@.str = private unnamed_addr constant [3 x i8] c"%d\00", align 1
@.str.1 = private unnamed_addr constant [4 x i8] c"%d \00", align 1

; Function Attrs: nofree nounwind sspstrong uwtable
define dso_local i32 @main() local_unnamed_addr #0 {
  %1 = alloca [100 x i32], align 16
  %2 = alloca i32, align 4
  %3 = bitcast [100 x i32]* %1 to i8*
  call void @llvm.lifetime.start.p0i8(i64 400, i8* nonnull %3) #3
  %4 = bitcast i32* %2 to i8*
  call void @llvm.lifetime.start.p0i8(i64 4, i8* nonnull %4) #3
  %5 = call i32 (i8*, ...) @__isoc99_scanf(i8* getelementptr inbounds ([3 x i8], [3 x i8]* @.str, i64 0, i64 0), i32* nonnull %2)
  %6 = load i32, i32* %2, align 4, !tbaa !5
  %7 = icmp sgt i32 %6, 0
  br i1 %7, label %8, label %16

8:                                                ; preds = %0, %8
  %9 = phi i64 [ %12, %8 ], [ 0, %0 ]
  %10 = getelementptr inbounds [100 x i32], [100 x i32]* %1, i64 0, i64 %9
  %11 = call i32 (i8*, ...) @__isoc99_scanf(i8* getelementptr inbounds ([3 x i8], [3 x i8]* @.str, i64 0, i64 0), i32* nonnull %10)
  %12 = add nuw nsw i64 %9, 1
  %13 = load i32, i32* %2, align 4, !tbaa !5
  %14 = sext i32 %13 to i64
  %15 = icmp slt i64 %12, %14
  br i1 %15, label %8, label %16, !llvm.loop !9

16:                                               ; preds = %8, %0
  %17 = phi i32 [ %6, %0 ], [ %13, %8 ]
  %18 = sext i32 %17 to i64
  %19 = getelementptr inbounds [100 x i32], [100 x i32]* %1, i64 0, i64 0
  %20 = getelementptr inbounds [100 x i32], [100 x i32]* %1, i64 0, i64 %18
  %21 = getelementptr inbounds i32, i32* %20, i64 -1
  %22 = icmp ult i32* %19, %21
  br i1 %22, label %28, label %23

23:                                               ; preds = %28, %16
  %24 = icmp sgt i32 %17, 1
  br i1 %24, label %36, label %25

25:                                               ; preds = %23
  %26 = add nsw i32 %17, -1
  %27 = sext i32 %26 to i64
  br label %46

28:                                               ; preds = %16, %28
  %29 = phi i32* [ %34, %28 ], [ %21, %16 ]
  %30 = phi i32* [ %33, %28 ], [ %19, %16 ]
  %31 = load i32, i32* %30, align 4, !tbaa !5
  %32 = load i32, i32* %29, align 4, !tbaa !5
  store i32 %32, i32* %30, align 4, !tbaa !5
  store i32 %31, i32* %29, align 4, !tbaa !5
  %33 = getelementptr inbounds i32, i32* %30, i64 1
  %34 = getelementptr inbounds i32, i32* %29, i64 -1
  %35 = icmp ult i32* %33, %34
  br i1 %35, label %28, label %23, !llvm.loop !11

36:                                               ; preds = %23, %36
  %37 = phi i64 [ %41, %36 ], [ 0, %23 ]
  %38 = getelementptr inbounds [100 x i32], [100 x i32]* %1, i64 0, i64 %37
  %39 = load i32, i32* %38, align 4, !tbaa !5
  %40 = call i32 (i8*, ...) @printf(i8* nonnull dereferenceable(1) getelementptr inbounds ([4 x i8], [4 x i8]* @.str.1, i64 0, i64 0), i32 %39)
  %41 = add nuw nsw i64 %37, 1
  %42 = load i32, i32* %2, align 4, !tbaa !5
  %43 = add nsw i32 %42, -1
  %44 = sext i32 %43 to i64
  %45 = icmp slt i64 %41, %44
  br i1 %45, label %36, label %46, !llvm.loop !12

46:                                               ; preds = %36, %25
  %47 = phi i64 [ %27, %25 ], [ %44, %36 ]
  %48 = getelementptr inbounds [100 x i32], [100 x i32]* %1, i64 0, i64 %47
  %49 = load i32, i32* %48, align 4, !tbaa !5
  %50 = call i32 (i8*, ...) @printf(i8* nonnull dereferenceable(1) getelementptr inbounds ([3 x i8], [3 x i8]* @.str, i64 0, i64 0), i32 %49)
  call void @llvm.lifetime.end.p0i8(i64 4, i8* nonnull %4) #3
  call void @llvm.lifetime.end.p0i8(i64 400, i8* nonnull %3) #3
  ret i32 0
}

; Function Attrs: argmemonly mustprogress nofree nosync nounwind willreturn
declare void @llvm.lifetime.start.p0i8(i64 immarg, i8* nocapture) #1

; Function Attrs: nofree nounwind
declare noundef i32 @__isoc99_scanf(i8* nocapture noundef readonly, ...) local_unnamed_addr #2

; Function Attrs: nofree nounwind
declare noundef i32 @printf(i8* nocapture noundef readonly, ...) local_unnamed_addr #2

; Function Attrs: argmemonly mustprogress nofree nosync nounwind willreturn
declare void @llvm.lifetime.end.p0i8(i64 immarg, i8* nocapture) #1


!llvm.module.flags = !{!0, !1, !2, !3}
!llvm.ident = !{!4}

!0 = !{i32 1, !"wchar_size", i32 4}
!1 = !{i32 7, !"PIC Level", i32 2}
!2 = !{i32 7, !"PIE Level", i32 2}
!3 = !{i32 7, !"uwtable", i32 1}
!4 = !{!"clang version 13.0.0"}
!5 = !{!6, !6, i64 0}
!6 = !{!"int", !7, i64 0}
!7 = !{!"omnipotent char", !8, i64 0}
!8 = !{!"Simple C/C++ TBAA"}
!9 = distinct !{!9, !10}
!10 = !{!"llvm.loop.mustprogress"}
!11 = distinct !{!11, !10}
!12 = distinct !{!12, !10}
